; Function Attrs: mustprogress uwtable
define noundef nonnull align 8 dereferenceable(112) ptr @_ZNK5boost15program_options19options_description4findERKNSt7__cxx1112basic_stringIcSt11char_traitsIcESaIcEEEbbb(ptr nocapture noundef nonnull readonly align 8 dereferenceable(128) %0, ptr noundef nonnull align 8 dereferenceable(32) %1, i1 noundef zeroext %2, i1 noundef zeroext %3, i1 noundef zeroext %4) local_unnamed_addr #1 align 2 personality ptr @__gxx_personality_v0 {
  %6 = alloca %"class.boost::program_options::unknown_option", align 8
  %7 = alloca %"class.std::__cxx11::basic_string", align 8
  %8 = alloca %"class.std::allocator", align 1
  %9 = tail call noundef ptr @_ZNK5boost15program_options19options_description12find_nothrowERKNSt7__cxx1112basic_stringIcSt11char_traitsIcESaIcEEEbbb(ptr noundef nonnull align 8 dereferenceable(128) %0, ptr noundef nonnull align 8 dereferenceable(32) %1, i1 noundef zeroext %2, i1 noundef zeroext %3, i1 noundef zeroext %4)
  %.not = icmp eq ptr %9, null
  br i1 %.not, label %10, label %26

10:                                               ; preds = %5
  call void @llvm.lifetime.start.p0(i64 184, ptr nonnull %6) #30
  call void @llvm.lifetime.start.p0(i64 32, ptr nonnull %7) #30
  call void @llvm.lifetime.start.p0(i64 1, ptr nonnull %8) #30
  call void @_ZNSt7__cxx1112basic_stringIcSt11char_traitsIcESaIcEEC2IS3_EEPKcRKS3_(ptr noundef nonnull align 8 dereferenceable(32) %7, ptr noundef nonnull @.str.3, ptr noundef nonnull align 1 dereferenceable(1) %8)
  invoke void @_ZN5boost15program_options14unknown_optionC2ERKNSt7__cxx1112basic_stringIcSt11char_traitsIcESaIcEEE(ptr noundef nonnull align 8 dereferenceable(184) %6, ptr noundef nonnull align 8 dereferenceable(32) %7)
          to label %11 unwind label %13

11:                                               ; preds = %10
  invoke void @_ZN5boost15throw_exceptionINS_15program_options14unknown_optionEEEvRKT_(ptr noundef nonnull align 8 dereferenceable(184) %6) #31
          to label %12 unwind label %15

12:                                               ; preds = %11
  unreachable

13:                                               ; preds = %10
  %14 = landingpad { ptr, i32 }
          cleanup
  br label %17

15:                                               ; preds = %11
  %16 = landingpad { ptr, i32 }
          cleanup
  call void @_ZN5boost15program_options22error_with_option_nameD2Ev(ptr noundef nonnull align 8 dereferenceable(184) %6) #30
  br label %17

17:                                               ; preds = %15, %13
  %.pn = phi { ptr, i32 } [ %16, %15 ], [ %14, %13 ]
  %18 = load ptr, ptr %7, align 8, !tbaa !24
  %19 = getelementptr inbounds nuw i8, ptr %7, i64 16
  %20 = icmp eq ptr %18, %19
  br i1 %20, label %_ZNKSt7__cxx1112basic_stringIcSt11char_traitsIcESaIcEE11_M_is_localEv.exit.thread.i.i, label %_ZNKSt7__cxx1112basic_stringIcSt11char_traitsIcESaIcEE11_M_is_localEv.exit.i.i

_ZNKSt7__cxx1112basic_stringIcSt11char_traitsIcESaIcEE11_M_is_localEv.exit.thread.i.i: ; preds = %17
  %21 = getelementptr inbounds nuw i8, ptr %7, i64 8
  %22 = load i64, ptr %21, align 8, !tbaa !10
  %23 = icmp ult i64 %22, 16
  call void @llvm.assume(i1 %23)
  br label %_ZNSt7__cxx1112basic_stringIcSt11char_traitsIcESaIcEED2Ev.exit

_ZNKSt7__cxx1112basic_stringIcSt11char_traitsIcESaIcEE11_M_is_localEv.exit.i.i: ; preds = %17
  %24 = load i64, ptr %19, align 8, !tbaa !13
  %25 = add i64 %24, 1
  call void @_ZdlPvm(ptr noundef %18, i64 noundef %25) #33
  br label %_ZNSt7__cxx1112basic_stringIcSt11char_traitsIcESaIcEED2Ev.exit

_ZNSt7__cxx1112basic_stringIcSt11char_traitsIcESaIcEED2Ev.exit: ; preds = %_ZNKSt7__cxx1112basic_stringIcSt11char_traitsIcESaIcEE11_M_is_localEv.exit.i.i, %_ZNKSt7__cxx1112basic_stringIcSt11char_traitsIcESaIcEE11_M_is_localEv.exit.thread.i.i
  call void @llvm.lifetime.end.p0(i64 1, ptr nonnull %8) #30
  call void @llvm.lifetime.end.p0(i64 32, ptr nonnull %7) #30
  call void @llvm.lifetime.end.p0(i64 184, ptr nonnull %6) #30
  resume { ptr, i32 } %.pn

26:                                               ; preds = %5
  ret ptr %9
}